target datalayout = "e-m:e-p270:32:32-p271:32:32-p272:64:64-i64:64-i128:128-f80:128-n8:16:32:64-S128"
target triple = "x86_64-pc-linux-gnu"

%struct.darktable_t = type { %struct.dt_codepath_t, i32, i32, ptr, ptr, ptr, ptr, ptr, ptr, ptr, ptr, ptr, ptr, ptr, ptr, ptr, ptr, ptr, ptr, ptr, ptr, ptr, ptr, ptr, ptr, ptr, ptr, ptr, ptr, ptr, [64 x %struct.dt_pthread_mutex_t], %struct.dt_pthread_mutex_t, %struct.dt_pthread_mutex_t, %struct.dt_pthread_mutex_t, %struct.dt_pthread_mutex_t, %struct.dt_pthread_mutex_t, ptr, ptr, ptr, ptr, ptr, ptr, ptr, ptr, ptr, ptr, ptr, ptr, ptr, %struct.dt_lua_state_t, ptr, double, ptr, i32, [47 x i32], i32, i32, ptr, ptr, %struct.dt_sys_resources_t, %struct.dt_backthumb_t, %struct.dt_gimp_t }
%struct.dt_codepath_t = type { i8, [3 x i8] }
%struct.dt_pthread_mutex_t = type { %union.pthread_mutex_t }
%union.pthread_mutex_t = type { %struct.__pthread_mutex_s }
%struct.__pthread_mutex_s = type { i32, i32, i32, i32, i32, i16, i16, %struct.__pthread_internal_list }
%struct.__pthread_internal_list = type { ptr, ptr }
%struct.dt_lua_state_t = type { i32 }
%struct.dt_sys_resources_t = type { i64, i64, ptr, ptr, i32 }
%struct.dt_backthumb_t = type { double, double, i32, i32, i32, i32 }
%struct.dt_gimp_t = type { i32, ptr, ptr, i32, i32 }
%struct.dt_image_cache_t = type { %struct.dt_cache_t }
%struct.dt_cache_t = type { %struct.dt_pthread_mutex_t, i64, i64, i64, ptr, ptr, ptr, ptr, ptr, ptr }
%struct.dt_cache_entry_t = type { ptr, i64, i64, ptr, %union.pthread_rwlock_t, i32, i32 }
%union.pthread_rwlock_t = type { %struct.__pthread_rwlock_arch_t }
%struct.__pthread_rwlock_arch_t = type { i32, i32, i32, i32, i32, i32, i32, i32, i8, [7 x i8], i64, i32 }
%struct.dt_image_t = type { i32, i32, float, float, float, float, float, float, float, [64 x i8], [64 x i8], [128 x i8], [64 x i8], [64 x i8], [64 x i8], [64 x i8], i64, i32, %union.dt_image_correction_data_t, [64 x i8], [64 x i8], [64 x i8], [128 x i8], i32, [256 x i8], i32, i32, i32, i32, i32, i32, i32, i32, i32, i32, float, i32, i32, i32, i32, i32, i32, i64, i64, i64, i64, i32, [12 x i8], %struct.dt_iop_buffer_dsc_t, [9 x float], ptr, i32, i32, %struct.dt_image_raw_parameters_t, %struct.dt_image_geoloc_t, %struct._color_harmony_t, i16, [4 x i16], i32, i32, float, float, [4 x float], [4 x [3 x float]], [4 x float], ptr, ptr, i32, i32, [8 x i8] }
%union.dt_image_correction_data_t = type { %struct.anon.0 }
%struct.anon.0 = type { i32, float, [11 x float], [11 x float], [11 x float], [11 x float], [11 x float] }
%struct.dt_iop_buffer_dsc_t = type { i32, i32, i32, [6 x [6 x i8]], %struct.anon.3, [12 x i8], %struct.anon.4, [4 x float], i32, [12 x i8] }
%struct.anon.3 = type { i16, i16 }
%struct.anon.4 = type { i32, [12 x i8], [4 x float] }
%struct.dt_image_raw_parameters_t = type { i32 }
%struct.dt_image_geoloc_t = type { double, double, double }
%struct._color_harmony_t = type { i32, i32, i32 }

@darktable = external global %struct.darktable_t, align 8
@.str.4 = private unnamed_addr constant [56 x i8] c"[dt_image_cache_testget] failed as not a valid imgid=%d\00", align 1
@.str.5 = private unnamed_addr constant [65 x i8] c"[dt_image_cache_testget] for imgid=%d failed in dt_cache_testget\00", align 1

; Function Attrs: nounwind uwtable
define ptr @dt_image_cache_testget(ptr noundef %0, i32 noundef %1, i8 noundef signext %2) #0 {
  %4 = alloca ptr, align 8
  %5 = alloca ptr, align 8
  %6 = alloca i32, align 4
  %7 = alloca i8, align 1
  %8 = alloca ptr, align 8
  %9 = alloca i32, align 4
  %10 = alloca ptr, align 8
  store ptr %0, ptr %5, align 8, !tbaa !6
  store i32 %1, ptr %6, align 4, !tbaa !11
  store i8 %2, ptr %7, align 1, !tbaa !90
  %11 = load i32, ptr %6, align 4, !tbaa !11
  %12 = icmp sgt i32 %11, 0
  br i1 %12, label %27, label %13

13:                                               ; preds = %3
  br label %14

14:                                               ; preds = %13
  %15 = load i32, ptr getelementptr inbounds nuw (%struct.darktable_t, ptr @darktable, i32 0, i32 2), align 8, !tbaa !13
  %16 = and i32 1, %15
  %17 = icmp ne i32 %16, 0
  br i1 %17, label %18, label %25

18:                                               ; preds = %14
  %19 = load i32, ptr getelementptr inbounds nuw (%struct.darktable_t, ptr @darktable, i32 0, i32 2), align 8, !tbaa !13
  %20 = xor i32 %19, -1
  %21 = and i32 0, %20
  %22 = icmp ne i32 %21, 0
  br i1 %22, label %25, label %23

23:                                               ; preds = %18
  %24 = load i32, ptr %6, align 4, !tbaa !11
  call void (ptr, ...) @dt_print_ext(ptr noundef @.str.4, i32 noundef %24)
  br label %25

25:                                               ; preds = %23, %18, %14
  br label %26

26:                                               ; preds = %25
  store ptr null, ptr %4, align 8
  br label %59

27:                                               ; preds = %3
  call void @llvm.lifetime.start.p0(i64 8, ptr %8) #7
  %28 = load ptr, ptr %5, align 8, !tbaa !6
  %29 = getelementptr inbounds nuw %struct.dt_image_cache_t, ptr %28, i32 0, i32 0
  %30 = load i32, ptr %6, align 4, !tbaa !11
  %31 = load i8, ptr %7, align 1, !tbaa !90
  %32 = call ptr @dt_cache_testget(ptr noundef %29, i32 noundef %30, i8 noundef signext %31)
  store ptr %32, ptr %8, align 8, !tbaa !57
  %33 = load ptr, ptr %8, align 8, !tbaa !57
  %34 = icmp ne ptr %33, null
  br i1 %34, label %50, label %35

35:                                               ; preds = %27
  br label %36

36:                                               ; preds = %35
  %37 = load i32, ptr getelementptr inbounds nuw (%struct.darktable_t, ptr @darktable, i32 0, i32 2), align 8, !tbaa !13
  %38 = and i32 1, %37
  %39 = icmp ne i32 %38, 0
  br i1 %39, label %40, label %47

40:                                               ; preds = %36
  %41 = load i32, ptr getelementptr inbounds nuw (%struct.darktable_t, ptr @darktable, i32 0, i32 2), align 8, !tbaa !13
  %42 = xor i32 %41, -1
  %43 = and i32 0, %42
  %44 = icmp ne i32 %43, 0
  br i1 %44, label %47, label %45

45:                                               ; preds = %40
  %46 = load i32, ptr %6, align 4, !tbaa !11
  call void (ptr, ...) @dt_print_ext(ptr noundef @.str.5, i32 noundef %46)
  br label %47

47:                                               ; preds = %45, %40, %36
  br label %48

48:                                               ; preds = %47
  br label %49

49:                                               ; preds = %48
  store ptr null, ptr %4, align 8
  store i32 1, ptr %9, align 4
  br label %58

50:                                               ; preds = %27
  call void @llvm.lifetime.start.p0(i64 8, ptr %10) #7
  %51 = load ptr, ptr %8, align 8, !tbaa !57
  %52 = getelementptr inbounds nuw %struct.dt_cache_entry_t, ptr %51, i32 0, i32 0
  %53 = load ptr, ptr %52, align 8, !tbaa !63
  store ptr %53, ptr %10, align 8, !tbaa !61
  %54 = load ptr, ptr %8, align 8, !tbaa !57
  %55 = load ptr, ptr %10, align 8, !tbaa !61
  %56 = getelementptr inbounds nuw %struct.dt_image_t, ptr %55, i32 0, i32 66
  store ptr %54, ptr %56, align 8, !tbaa !125
  %57 = load ptr, ptr %10, align 8, !tbaa !61
  store ptr %57, ptr %4, align 8
  store i32 1, ptr %9, align 4
  call void @llvm.lifetime.end.p0(i64 8, ptr %10) #7
  br label %58

58:                                               ; preds = %50, %49
  call void @llvm.lifetime.end.p0(i64 8, ptr %8) #7
  br label %59

59:                                               ; preds = %58, %26
  %60 = load ptr, ptr %4, align 8
  ret ptr %60
}