; Function Attrs: nounwind uwtable
define ptr @dt_image_cache_testget(ptr noundef %0, i32 noundef %1, i8 noundef signext %2) local_unnamed_addr #0 {
  %4 = icmp sgt i32 %1, 0
  br i1 %4, label %9, label %5

5:                                                ; preds = %3
  %6 = load i32, ptr getelementptr inbounds nuw (i8, ptr @darktable, i64 8), align 8, !tbaa !18
  %7 = and i32 %6, 1
  %.not = icmp eq i32 %7, 0
  br i1 %.not, label %18, label %8

8:                                                ; preds = %5
  tail call void (ptr, ...) @dt_print_ext(ptr noundef nonnull @.str.4, i32 noundef %1) #8
  br label %18

9:                                                ; preds = %3
  %10 = tail call ptr @dt_cache_testget(ptr noundef %0, i32 noundef %1, i8 noundef signext %2) #8
  %.not14 = icmp eq ptr %10, null
  br i1 %.not14, label %11, label %15

11:                                               ; preds = %9
  %12 = load i32, ptr getelementptr inbounds nuw (i8, ptr @darktable, i64 8), align 8, !tbaa !18
  %13 = and i32 %12, 1
  %.not15 = icmp eq i32 %13, 0
  br i1 %.not15, label %18, label %14

14:                                               ; preds = %11
  tail call void (ptr, ...) @dt_print_ext(ptr noundef nonnull @.str.5, i32 noundef %1) #8
  br label %18

15:                                               ; preds = %9
  %16 = load ptr, ptr %10, align 8, !tbaa !56
  %17 = getelementptr inbounds nuw i8, ptr %16, i64 1832
  store ptr %10, ptr %17, align 8, !tbaa !113
  br label %18

18:                                               ; preds = %15, %14, %11, %8, %5
  %.0 = phi ptr [ null, %5 ], [ null, %8 ], [ %16, %15 ], [ null, %14 ], [ null, %11 ]
  ret ptr %.0
}